target datalayout = "e-m:e-p270:32:32-p271:32:32-p272:64:64-i64:64-i128:128-f80:128-n8:16:32:64-S128"
target triple = "x86_64-pc-linux-gnu"

%struct.tm = type { i32, i32, i32, i32, i32, i32, i32, i32, i32, i64, ptr }

; Function Attrs: nounwind sspstrong uwtable
define internal i32 @tmcmp(ptr noundef %0, ptr noundef %1) #0 {
  %3 = alloca i32, align 4
  %4 = alloca ptr, align 8
  %5 = alloca ptr, align 8
  store ptr %0, ptr %4, align 8, !tbaa !95
  store ptr %1, ptr %5, align 8, !tbaa !95
  %6 = load ptr, ptr %4, align 8, !tbaa !95
  %7 = getelementptr inbounds nuw %struct.tm, ptr %6, i32 0, i32 5
  %8 = load i32, ptr %7, align 4, !tbaa !84
  %9 = load ptr, ptr %5, align 8, !tbaa !95
  %10 = getelementptr inbounds nuw %struct.tm, ptr %9, i32 0, i32 5
  %11 = load i32, ptr %10, align 4, !tbaa !84
  %12 = icmp ne i32 %8, %11
  br i1 %12, label %13, label %22

13:                                               ; preds = %2
  %14 = load ptr, ptr %4, align 8, !tbaa !95
  %15 = getelementptr inbounds nuw %struct.tm, ptr %14, i32 0, i32 5
  %16 = load i32, ptr %15, align 4, !tbaa !84
  %17 = load ptr, ptr %5, align 8, !tbaa !95
  %18 = getelementptr inbounds nuw %struct.tm, ptr %17, i32 0, i32 5
  %19 = load i32, ptr %18, align 4, !tbaa !84
  %20 = icmp slt i32 %16, %19
  %21 = select i1 %20, i32 -1, i32 1
  store i32 %21, ptr %3, align 4
  br label %108

22:                                               ; preds = %2
  %23 = load ptr, ptr %4, align 8, !tbaa !95
  %24 = getelementptr inbounds nuw %struct.tm, ptr %23, i32 0, i32 4
  %25 = load i32, ptr %24, align 8, !tbaa !86
  %26 = load ptr, ptr %5, align 8, !tbaa !95
  %27 = getelementptr inbounds nuw %struct.tm, ptr %26, i32 0, i32 4
  %28 = load i32, ptr %27, align 8, !tbaa !86
  %29 = icmp ne i32 %25, %28
  br i1 %29, label %30, label %39

30:                                               ; preds = %22
  %31 = load ptr, ptr %4, align 8, !tbaa !95
  %32 = getelementptr inbounds nuw %struct.tm, ptr %31, i32 0, i32 4
  %33 = load i32, ptr %32, align 8, !tbaa !86
  %34 = load ptr, ptr %5, align 8, !tbaa !95
  %35 = getelementptr inbounds nuw %struct.tm, ptr %34, i32 0, i32 4
  %36 = load i32, ptr %35, align 8, !tbaa !86
  %37 = icmp slt i32 %33, %36
  %38 = select i1 %37, i32 -1, i32 1
  store i32 %38, ptr %3, align 4
  br label %108

39:                                               ; preds = %22
  %40 = load ptr, ptr %4, align 8, !tbaa !95
  %41 = getelementptr inbounds nuw %struct.tm, ptr %40, i32 0, i32 3
  %42 = load i32, ptr %41, align 4, !tbaa !87
  %43 = load ptr, ptr %5, align 8, !tbaa !95
  %44 = getelementptr inbounds nuw %struct.tm, ptr %43, i32 0, i32 3
  %45 = load i32, ptr %44, align 4, !tbaa !87
  %46 = icmp ne i32 %42, %45
  br i1 %46, label %47, label %56

47:                                               ; preds = %39
  %48 = load ptr, ptr %4, align 8, !tbaa !95
  %49 = getelementptr inbounds nuw %struct.tm, ptr %48, i32 0, i32 3
  %50 = load i32, ptr %49, align 4, !tbaa !87
  %51 = load ptr, ptr %5, align 8, !tbaa !95
  %52 = getelementptr inbounds nuw %struct.tm, ptr %51, i32 0, i32 3
  %53 = load i32, ptr %52, align 4, !tbaa !87
  %54 = icmp slt i32 %50, %53
  %55 = select i1 %54, i32 -1, i32 1
  store i32 %55, ptr %3, align 4
  br label %108

56:                                               ; preds = %39
  %57 = load ptr, ptr %4, align 8, !tbaa !95
  %58 = getelementptr inbounds nuw %struct.tm, ptr %57, i32 0, i32 2
  %59 = load i32, ptr %58, align 8, !tbaa !88
  %60 = load ptr, ptr %5, align 8, !tbaa !95
  %61 = getelementptr inbounds nuw %struct.tm, ptr %60, i32 0, i32 2
  %62 = load i32, ptr %61, align 8, !tbaa !88
  %63 = icmp ne i32 %59, %62
  br i1 %63, label %64, label %73

64:                                               ; preds = %56
  %65 = load ptr, ptr %4, align 8, !tbaa !95
  %66 = getelementptr inbounds nuw %struct.tm, ptr %65, i32 0, i32 2
  %67 = load i32, ptr %66, align 8, !tbaa !88
  %68 = load ptr, ptr %5, align 8, !tbaa !95
  %69 = getelementptr inbounds nuw %struct.tm, ptr %68, i32 0, i32 2
  %70 = load i32, ptr %69, align 8, !tbaa !88
  %71 = icmp slt i32 %67, %70
  %72 = select i1 %71, i32 -1, i32 1
  store i32 %72, ptr %3, align 4
  br label %108

73:                                               ; preds = %56
  %74 = load ptr, ptr %4, align 8, !tbaa !95
  %75 = getelementptr inbounds nuw %struct.tm, ptr %74, i32 0, i32 1
  %76 = load i32, ptr %75, align 4, !tbaa !89
  %77 = load ptr, ptr %5, align 8, !tbaa !95
  %78 = getelementptr inbounds nuw %struct.tm, ptr %77, i32 0, i32 1
  %79 = load i32, ptr %78, align 4, !tbaa !89
  %80 = icmp ne i32 %76, %79
  br i1 %80, label %81, label %90

81:                                               ; preds = %73
  %82 = load ptr, ptr %4, align 8, !tbaa !95
  %83 = getelementptr inbounds nuw %struct.tm, ptr %82, i32 0, i32 1
  %84 = load i32, ptr %83, align 4, !tbaa !89
  %85 = load ptr, ptr %5, align 8, !tbaa !95
  %86 = getelementptr inbounds nuw %struct.tm, ptr %85, i32 0, i32 1
  %87 = load i32, ptr %86, align 4, !tbaa !89
  %88 = icmp slt i32 %84, %87
  %89 = select i1 %88, i32 -1, i32 1
  store i32 %89, ptr %3, align 4
  br label %108

90:                                               ; preds = %73
  %91 = load ptr, ptr %4, align 8, !tbaa !95
  %92 = getelementptr inbounds nuw %struct.tm, ptr %91, i32 0, i32 0
  %93 = load i32, ptr %92, align 8, !tbaa !90
  %94 = load ptr, ptr %5, align 8, !tbaa !95
  %95 = getelementptr inbounds nuw %struct.tm, ptr %94, i32 0, i32 0
  %96 = load i32, ptr %95, align 8, !tbaa !90
  %97 = icmp ne i32 %93, %96
  br i1 %97, label %98, label %107

98:                                               ; preds = %90
  %99 = load ptr, ptr %4, align 8, !tbaa !95
  %100 = getelementptr inbounds nuw %struct.tm, ptr %99, i32 0, i32 0
  %101 = load i32, ptr %100, align 8, !tbaa !90
  %102 = load ptr, ptr %5, align 8, !tbaa !95
  %103 = getelementptr inbounds nuw %struct.tm, ptr %102, i32 0, i32 0
  %104 = load i32, ptr %103, align 8, !tbaa !90
  %105 = icmp slt i32 %101, %104
  %106 = select i1 %105, i32 -1, i32 1
  store i32 %106, ptr %3, align 4
  br label %108

107:                                              ; preds = %90
  store i32 0, ptr %3, align 4
  br label %108

108:                                              ; preds = %107, %98, %81, %64, %47, %30, %13
  %109 = load i32, ptr %3, align 4
  ret i32 %109
}