; Function Attrs: mustprogress nofree norecurse nosync nounwind sspstrong willreturn memory(argmem: read) uwtable
define internal fastcc range(i32 -1, 2) i32 @tmcmp(ptr noundef nonnull readonly captures(none) %0, ptr noundef nonnull readonly captures(none) %1) unnamed_addr #15 {
  %3 = getelementptr inbounds nuw i8, ptr %0, i64 20
  %4 = load i32, ptr %3, align 4, !tbaa !105
  %5 = getelementptr inbounds nuw i8, ptr %1, i64 20
  %6 = load i32, ptr %5, align 4, !tbaa !105
  %.not = icmp eq i32 %4, %6
  br i1 %.not, label %10, label %7

7:                                                ; preds = %2
  %8 = icmp slt i32 %4, %6
  %9 = select i1 %8, i32 -1, i32 1
  br label %48

10:                                               ; preds = %2
  %11 = getelementptr inbounds nuw i8, ptr %0, i64 16
  %12 = load i32, ptr %11, align 8, !tbaa !107
  %13 = getelementptr inbounds nuw i8, ptr %1, i64 16
  %14 = load i32, ptr %13, align 8, !tbaa !107
  %.not36 = icmp eq i32 %12, %14
  br i1 %.not36, label %18, label %15

15:                                               ; preds = %10
  %16 = icmp slt i32 %12, %14
  %17 = select i1 %16, i32 -1, i32 1
  br label %48

18:                                               ; preds = %10
  %19 = getelementptr inbounds nuw i8, ptr %0, i64 12
  %20 = load i32, ptr %19, align 4, !tbaa !108
  %21 = getelementptr inbounds nuw i8, ptr %1, i64 12
  %22 = load i32, ptr %21, align 4, !tbaa !108
  %.not37 = icmp eq i32 %20, %22
  br i1 %.not37, label %26, label %23

23:                                               ; preds = %18
  %24 = icmp slt i32 %20, %22
  %25 = select i1 %24, i32 -1, i32 1
  br label %48

26:                                               ; preds = %18
  %27 = getelementptr inbounds nuw i8, ptr %0, i64 8
  %28 = load i32, ptr %27, align 8, !tbaa !109
  %29 = getelementptr inbounds nuw i8, ptr %1, i64 8
  %30 = load i32, ptr %29, align 8, !tbaa !109
  %.not38 = icmp eq i32 %28, %30
  br i1 %.not38, label %34, label %31

31:                                               ; preds = %26
  %32 = icmp slt i32 %28, %30
  %33 = select i1 %32, i32 -1, i32 1
  br label %48

34:                                               ; preds = %26
  %35 = getelementptr inbounds nuw i8, ptr %0, i64 4
  %36 = load i32, ptr %35, align 4, !tbaa !110
  %37 = getelementptr inbounds nuw i8, ptr %1, i64 4
  %38 = load i32, ptr %37, align 4, !tbaa !110
  %.not39 = icmp eq i32 %36, %38
  br i1 %.not39, label %42, label %39

39:                                               ; preds = %34
  %40 = icmp slt i32 %36, %38
  %41 = select i1 %40, i32 -1, i32 1
  br label %48

42:                                               ; preds = %34
  %43 = load i32, ptr %0, align 8, !tbaa !111
  %44 = load i32, ptr %1, align 8, !tbaa !111
  %.not40 = icmp eq i32 %43, %44
  br i1 %.not40, label %48, label %45

45:                                               ; preds = %42
  %46 = icmp slt i32 %43, %44
  %47 = select i1 %46, i32 -1, i32 1
  br label %48

48:                                               ; preds = %42, %45, %39, %31, %23, %15, %7
  %.0 = phi i32 [ %9, %7 ], [ %17, %15 ], [ %25, %23 ], [ %33, %31 ], [ %41, %39 ], [ %47, %45 ], [ 0, %42 ]
  ret i32 %.0
}